; Function Attrs: mustprogress uwtable
define hidden void @_ZN11upolynomial12core_manager9normalizeER7svectorI3mpzjE(ptr noundef nonnull align 8 dereferenceable(272) %0, ptr noundef nonnull readonly align 8 captures(none) dereferenceable(8) %1) local_unnamed_addr #3 align 2 {
  %3 = load ptr, ptr %1, align 8, !tbaa !28
  %4 = icmp eq ptr %3, null
  br i1 %4, label %_ZNK6vectorI3mpzLb0EjE4sizeEv.exit, label %5

5:                                                ; preds = %2
  %6 = getelementptr inbounds i8, ptr %3, i64 -4
  %7 = load i32, ptr %6, align 4, !tbaa !27
  br label %_ZNK6vectorI3mpzLb0EjE4sizeEv.exit

_ZNK6vectorI3mpzLb0EjE4sizeEv.exit:               ; preds = %2, %5
  %.0.i = phi i32 [ %7, %5 ], [ 0, %2 ]
  tail call void @_ZN11upolynomial12core_manager9normalizeEjP3mpz(ptr noundef nonnull align 8 dereferenceable(272) %0, i32 noundef %.0.i, ptr noundef %3)
  ret void
}